ccopy_reg
_reconstructor
p1
(ccloudinit.sources.DataSourceEc2
DataSourceEc2
p2
c__builtin__
object
p3
NtRp4
(dp5
S'paths'
p6
g1
(ccloudinit.helpers
Paths
p7
g3
NtRp8
(dp9
S'lookups'
p10
(dp11
S'cloud_config'
p12
S'cloud-config.txt'
p13
sS'userdata'
p14
S'user-data.txt.i'
p15
sS'vendordata'
p16
S'vendor-data.txt.i'
p17
sS'userdata_raw'
p18
S'user-data.txt'
p19
sS'boothooks'
p20
g20
sS'scripts'
p21
g21
sS'sem'
p22
g22
sS'data'
p23
g23
sS'vendor_scripts'
p24
S'scripts/vendor'
p25
sS'handlers'
p26
g26
sS'obj_pkl'
p27
S'obj.pkl'
p28
sS'vendordata_raw'
p29
S'vendor-data.txt'
p30
sS'vendor_cloud_config'
p31
S'vendor-cloud-config.txt'
p32
ssS'template_tpl'
p33
S'/etc/cloud/templates/%s.tmpl'
p34
sS'cfgs'
p35
(dp36
S'cloud_dir'
p37
S'/var/lib/cloud/'
p38
sS'templates_dir'
p39
S'/etc/cloud/templates/'
p40
sS'upstart_dir'
p41
S'/etc/init/'
p42
ssS'cloud_dir'
p43
g38
sS'datasource'
p44
NsS'upstart_conf_d'
p45
g42
sS'boot_finished'
p46
S'/var/lib/cloud/instance/boot-finished'
p47
sS'instance_link'
p48
S'/var/lib/cloud/instance'
p49
sS'seed_dir'
p50
S'/var/lib/cloud/seed'
p51
sbsS'metadata_address'
p52
S'http://169.254.169.254'
p53
sS'sys_cfg'
p54
(dp55
S'resize_rootfs'
p56
S'noblock'
p57
sS'ssh_deletekeys'
p58
I01
sS'repo_upgrade'
p59
S'security'
p60
sS'datasource_list'
p61
(lp62
S'Ec2'
p63
aS'None'
p64
asS'mount_default_fields'
p65
(lp66
NaNaS'auto'
p67
aS'defaults,nofail'
p68
aS'0'
aS'2'
asS'write_metadata'
p69
(lp70
(dp71
S'path'
p72
S'/etc/yum/vars/awsregion'
p73
sS'data'
p74
(lp75
(dp76
S'identity'
p77
S'region'
p78
saS'default'
p79
asa(dp80
S'path'
p81
S'/etc/yum/vars/awsdomain'
p82
sS'data'
p83
(lp84
(dp85
S'metadata'
p86
S'services/domain'
p87
saS'amazonaws.com'
p88
asasS'ssh_genkeytypes'
p89
(lp90
S'rsa'
p91
aS'dsa'
p92
aS'ecdsa'
p93
asS'def_log_file'
p94
S'/var/log/cloud-init.log'
p95
sS'cloud_init_modules'
p96
(lp97
S'migrator'
p98
aS'rsyslog'
p99
aS'bootcmd'
p100
aS'write-files'
p101
aS'write-metadata'
p102
aS'growpart'
p103
aS'resizefs'
p104
aS'set-hostname'
p105
aS'update-hostname'
p106
aS'update-etc-hosts'
p107
aS'resolv-conf'
p108
aS'users-groups'
p109
aS'ssh'
p110
asS'preserve_hostname'
p111
I01
sS'resize_rootfs_tmp'
p112
S'/dev'
p113
sS'cloud_config_modules'
p114
(lp115
S'mounts'
p116
aS'locale'
p117
aS'set-passwords'
p118
aS'yum-configure'
p119
aS'yum-add-repo'
p120
aS'package-update-upgrade-install'
p121
aS'timezone'
p122
aS'puppet'
p123
aS'disable-ec2-metadata'
p124
aS'runcmd'
p125
asS'users'
p126
(lp127
S'default'
p128
asS'disable_root'
p129
I01
sS'syslog_fix_perms'
p130
NsS'log_cfgs'
p131
(lp132
(lp133
S'[loggers]\nkeys=root,cloudinit\n\n[handlers]\nkeys=consoleHandler,cloudLogHandler\n\n[formatters]\nkeys=simpleFormatter,arg0Formatter\n\n[logger_root]\nlevel=DEBUG\nhandlers=consoleHandler,cloudLogHandler\n\n[logger_cloudinit]\nlevel=DEBUG\nqualname=cloudinit\nhandlers=\npropagate=1\n\n[handler_consoleHandler]\nclass=StreamHandler\nlevel=WARNING\nformatter=arg0Formatter\nargs=(sys.stderr,)\n\n[formatter_arg0Formatter]\nformat=%(asctime)s cloud-init[%(process)d]: %(filename)s[%(levelname)s]: %(message)s\ndatefmt=%b %d %H:%M:%S\n\n[formatter_simpleFormatter]\nformat=[CLOUDINIT] %(filename)s[%(levelname)s]: %(message)s\n'
p134
aS"[handler_cloudLogHandler]\nclass=FileHandler\nlevel=DEBUG\nformatter=arg0Formatter\nargs=('/var/log/cloud-init.log',)\n"
p135
aa(lp136
g134
aS'[handler_cloudLogHandler]\nclass=handlers.SysLogHandler\nlevel=DEBUG\nformatter=simpleFormatter\nargs=("/dev/log", handlers.SysLogHandler.LOG_USER)\n'
p137
aasS'_log'
p138
(lp139
g134
ag135
ag137
asS'locale_configfile'
p140
S'/etc/sysconfig/i18n'
p141
sS'ssh_pwauth'
p142
I00
sS'cloud_final_modules'
p143
(lp144
S'scripts-per-once'
p145
aS'scripts-per-boot'
p146
aS'scripts-per-instance'
p147
aS'scripts-user'
p148
aS'ssh-authkey-fingerprints'
p149
aS'keys-to-console'
p150
aS'phone-home'
p151
aS'final-message'
p152
aS'power-state-change'
p153
asS'mounts'
p154
(lp155
(lp156
S'ephemeral0'
p157
aS'/media/ephemeral0'
p158
aa(lp159
S'swap'
p160
aS'none'
p161
aS'swap'
p162
aS'sw'
p163
aS'0'
aS'0'
aasS'output'
p164
(dp165
S'all'
p166
S'| tee -a /var/log/cloud-init-output.log'
p167
ssS'vendor_data'
p168
(dp169
S'prefix'
p170
(lp171
sS'enabled'
p172
I01
ssS'repo_upgrade_exclude'
p173
(lp174
S'kernel'
p175
aS'nvidia*'
p176
aS'cudatoolkit'
p177
assg14
Nsg16
NsS'api_ver'
p178
S'latest'
p179
sg18
S''
sg29
NsS'ud_proc'
p180
g1
(ccloudinit.user_data
UserDataProcessor
p181
g3
NtRp182
(dp183
g6
g8
sS'ssl_details'
p184
(dp185
sbsg50
S'/var/lib/cloud/seed/ec2'
p186
sS'ds_cfg'
p187
(dp188
sS'distro'
p189
g1
(ccloudinit.distros.amazon
Distro
p190
g3
NtRp191
(dp192
S'osfamily'
p193
S'redhat'
p194
sS'_paths'
p195
g8
sS'name'
p196
S'amazon'
p197
sS'_runner'
p198
g1
(ccloudinit.helpers
Runners
p199
g3
NtRp200
(dp201
g6
g8
sS'sems'
p202
(dp203
sbsS'_cfg'
p204
(dp205
S'paths'
p206
(dp207
g37
g38
sg39
g40
sg41
g42
ssS'package_mirrors'
p208
(lp209
(dp210
S'arches'
p211
(lp212
S'i386'
p213
aS'x86_64'
p214
asS'search'
p215
(dp216
S'regional'
p217
(lp218
S'repo.%(ec2_region)s.%(services_domain)s'
p219
aS'repo.%(ec2_region)s.amazonaws.com'
p220
assasS'ssh_svcname'
p221
S'sshd'
p222
sS'distro_short'
p223
S'amzn'
p224
sS'default_user'
p225
(dp226
S'shell'
p227
S'/bin/bash'
p228
sS'name'
p229
S'ec2-user'
p230
sS'sudo'
p231
(lp232
S'ALL=(ALL) NOPASSWD:ALL'
p233
asS'lock_passwd'
p234
I01
sS'gecos'
p235
S'EC2 Default User'
p236
sS'groups'
p237
(lp238
S'wheel'
p239
asssbsS'identity'
p240
(dp241
VdevpayProductCodes
p242
NsVavailabilityZone
p243
Vus-east-1d
p244
sVinstanceId
p245
Vi-05f773aed68c201b1
p246
sVpendingTime
p247
V2018-02-12T18:32:48Z
p248
sVmarketplaceProductCodes
p249
NsVregion
p250
Vus-east-1
p251
sVimageId
p252
Vami-97785bed
p253
sVversion
p254
V2017-09-30
p255
sVarchitecture
p256
Vx86_64
p257
sVbillingProducts
p258
NsVkernelId
p259
NsVramdiskId
p260
NsVprivateIp
p261
V172.31.9.209
p262
sVinstanceType
p263
Vt2.micro
p264
sVaccountId
p265
V570032491801
p266
ssS'metadata'
p267
(dp268
S'profile'
p269
S'default-hvm'
p270
sS'reservation-id'
p271
S'r-05d5573571776a4b6'
p272
sS'hostname'
p273
S'ip-172-31-9-209.ec2.internal'
p274
sS'security-groups'
p275
S'launch-wizard-26'
p276
sS'metrics'
p277
(dp278
S'vhostmd'
p279
S'<?xml version="1.0" encoding="UTF-8"?>'
p280
ssS'ami-manifest-path'
p281
S'(unknown)'
p282
sS'mac'
p283
S'0a:83:67:48:10:fc'
p284
sS'public-ipv4'
p285
S'54.157.62.1'
p286
sS'services'
p287
(dp288
S'domain'
p289
S'amazonaws.com'
p290
sS'partition'
p291
S'aws'
p292
ssS'instance-type'
p293
S't2.micro'
p294
sS'instance-id'
p295
S'i-05f773aed68c201b1'
p296
sS'local-ipv4'
p297
S'172.31.9.209'
p298
sS'local-hostname'
p299
S'ip-172-31-9-209.ec2.internal'
p300
sS'placement'
p301
(dp302
S'availability-zone'
p303
S'us-east-1d'
p304
ssS'network'
p305
(dp306
S'interfaces'
p307
(dp308
S'macs'
p309
(dp310
S'0a:83:67:48:10:fc'
p311
(dp312
S'local-hostname'
p313
S'ip-172-31-9-209.ec2.internal'
p314
sS'security-groups'
p315
S'launch-wizard-26'
p316
sS'public-hostname'
p317
S'ec2-54-157-62-1.compute-1.amazonaws.com'
p318
sS'vpc-ipv4-cidr-blocks'
p319
S'172.31.0.0/16'
p320
sS'subnet-id'
p321
S'subnet-2d255264'
p322
sS'vpc-ipv4-cidr-block'
p323
S'172.31.0.0/16'
p324
sS'interface-id'
p325
S'eni-5ca35fa1'
p326
sS'mac'
p327
S'0a:83:67:48:10:fc'
p328
sS'security-group-ids'
p329
S'sg-3e7e0349'
p330
sS'public-ipv4s'
p331
S'54.157.62.1'
p332
sS'owner-id'
p333
S'570032491801'
p334
sS'subnet-ipv4-cidr-block'
p335
S'172.31.0.0/20'
p336
sS'vpc-id'
p337
S'vpc-99ae54ff'
p338
sS'local-ipv4s'
p339
S'172.31.9.209'
p340
sS'device-number'
p341
S'0'
sS'ipv4-associations'
p342
(dp343
S'54.157.62.1'
p344
S'172.31.9.209'
p345
ssssssS'ami-launch-index'
p346
S'0'
sS'public-hostname'
p347
S'ec2-54-157-62-1.compute-1.amazonaws.com'
p348
sS'public-keys'
p349
(dp350
S'seprojectharrison'
p351
(lp352
S'ssh-rsa AAAAB3NzaC1yc2EAAAADAQABAAABAQCOcaOJc8thDePOEcL7Sg9khSh4N/UWRJ7Q9Os4/u/lJ55NNotaogmRBSZydTZ2DFSkBCPAs6t6tuknFRcnSTEZHTXicD/1gexnMerL/EAVz1BRvVDsPPbEajwO2fCmAitFUNnjG4UsuBP1H12lwkM2IZu3GOcGea/t7w/rw469KphJhEH9nHpEt7vTpKjWDi+7P32/XzZvtBk+dtIXHu4b0jtu/ydwoeq3wIGXajYOWvPsBHIEbbrKcjT8C+28rS8Gxm0pwAIB+SfMWfyVmtStZiQmQgzzBieZc3OzyGuF0IDIZ4kXzSdzd8/5xiHX2+NBSOO9yf2BiZwr1kimIvKj seprojectharrison'
p353
assS'ami-id'
p354
S'ami-97785bed'
p355
sS'instance-action'
p356
S'none'
p357
sS'block-device-mapping'
p358
(dp359
S'ami'
p360
S'/dev/xvda'
p361
sS'root'
p362
S'/dev/xvda'
p363
sssb.